target datalayout = "e-m:e-p270:32:32-p271:32:32-p272:64:64-i64:64-i128:128-f80:128-n8:16:32:64-S128"
target triple = "x86_64-pc-linux-gnu"

%struct.ERR_string_data_st = type { i64, ptr }

@err_string_lock = internal global ptr null, align 8
@int_error_hash = internal global ptr null, align 8

; Function Attrs: inlinehint nounwind uwtable
define internal ptr @ossl_check_ERR_STRING_DATA_lh_plain_type(ptr noundef %0) #2 {
  %2 = alloca ptr, align 8
  store ptr %0, ptr %2, align 8, !tbaa !19
  %3 = load ptr, ptr %2, align 8, !tbaa !19
  ret ptr %3
}

; Function Attrs: inlinehint nounwind uwtable
define internal ptr @ossl_check_ERR_STRING_DATA_lh_type(ptr noundef %0) #2 {
  %2 = alloca ptr, align 8
  store ptr %0, ptr %2, align 8, !tbaa !17
  %3 = load ptr, ptr %2, align 8, !tbaa !17
  ret ptr %3
}

; Function Attrs: nounwind uwtable
define internal i32 @err_load_strings(ptr noundef %0) #0 {
  %2 = alloca i32, align 4
  %3 = alloca ptr, align 8
  store ptr %0, ptr %3, align 8, !tbaa !19
  %4 = load ptr, ptr @err_string_lock, align 8, !tbaa !16
  %5 = call i32 @CRYPTO_THREAD_write_lock(ptr noundef %4)
  %6 = icmp ne i32 %5, 0
  br i1 %6, label %8, label %7

7:                                                ; preds = %1
  store i32 0, ptr %2, align 4
  br label %26

8:                                                ; preds = %1
  br label %9

9:                                                ; preds = %20, %8
  %10 = load ptr, ptr %3, align 8, !tbaa !19
  %11 = getelementptr inbounds nuw %struct.ERR_string_data_st, ptr %10, i32 0, i32 0
  %12 = load i64, ptr %11, align 8, !tbaa !21
  %13 = icmp ne i64 %12, 0
  br i1 %13, label %14, label %23

14:                                               ; preds = %9
  %15 = load ptr, ptr @int_error_hash, align 8, !tbaa !17
  %16 = call ptr @ossl_check_ERR_STRING_DATA_lh_type(ptr noundef %15)
  %17 = load ptr, ptr %3, align 8, !tbaa !19
  %18 = call ptr @ossl_check_ERR_STRING_DATA_lh_plain_type(ptr noundef %17)
  %19 = call ptr @OPENSSL_LH_insert(ptr noundef %16, ptr noundef %18)
  br label %20

20:                                               ; preds = %14
  %21 = load ptr, ptr %3, align 8, !tbaa !19
  %22 = getelementptr inbounds nuw %struct.ERR_string_data_st, ptr %21, i32 1
  store ptr %22, ptr %3, align 8, !tbaa !19
  br label %9, !llvm.loop !23

23:                                               ; preds = %9
  %24 = load ptr, ptr @err_string_lock, align 8, !tbaa !16
  %25 = call i32 @CRYPTO_THREAD_unlock(ptr noundef %24)
  store i32 1, ptr %2, align 4
  br label %26

26:                                               ; preds = %23, %7
  %27 = load i32, ptr %2, align 4
  ret i32 %27
}

; Function Attrs: nounwind uwtable
define internal void @err_patch(i32 noundef %0, ptr noundef %1) #0 {
  %3 = alloca i32, align 4
  %4 = alloca ptr, align 8
  %5 = alloca i64, align 8
  store i32 %0, ptr %3, align 4, !tbaa !8
  store ptr %1, ptr %4, align 8, !tbaa !19
  call void @llvm.lifetime.start.p0(i64 8, ptr %5) #8
  %6 = load i32, ptr %3, align 4, !tbaa !8
  %7 = sext i32 %6 to i64
  %8 = and i64 %7, 255
  %9 = shl i64 %8, 23
  %10 = or i64 %9, 0
  store i64 %10, ptr %5, align 8, !tbaa !12
  br label %11

11:                                               ; preds = %22, %2
  %12 = load ptr, ptr %4, align 8, !tbaa !19
  %13 = getelementptr inbounds nuw %struct.ERR_string_data_st, ptr %12, i32 0, i32 0
  %14 = load i64, ptr %13, align 8, !tbaa !21
  %15 = icmp ne i64 %14, 0
  br i1 %15, label %16, label %25

16:                                               ; preds = %11
  %17 = load i64, ptr %5, align 8, !tbaa !12
  %18 = load ptr, ptr %4, align 8, !tbaa !19
  %19 = getelementptr inbounds nuw %struct.ERR_string_data_st, ptr %18, i32 0, i32 0
  %20 = load i64, ptr %19, align 8, !tbaa !21
  %21 = or i64 %20, %17
  store i64 %21, ptr %19, align 8, !tbaa !21
  br label %22

22:                                               ; preds = %16
  %23 = load ptr, ptr %4, align 8, !tbaa !19
  %24 = getelementptr inbounds nuw %struct.ERR_string_data_st, ptr %23, i32 1
  store ptr %24, ptr %4, align 8, !tbaa !19
  br label %11, !llvm.loop !24

25:                                               ; preds = %11
  call void @llvm.lifetime.end.p0(i64 8, ptr %5) #8
  ret void
}

; Function Attrs: nounwind uwtable
define i32 @ERR_load_strings(i32 noundef %0, ptr noundef %1) #0 {
  %3 = alloca i32, align 4
  %4 = alloca i32, align 4
  %5 = alloca ptr, align 8
  store i32 %0, ptr %4, align 4, !tbaa !8
  store ptr %1, ptr %5, align 8, !tbaa !19
  %6 = call i32 @ossl_err_load_ERR_strings()
  %7 = icmp eq i32 %6, 0
  br i1 %7, label %8, label %9

8:                                                ; preds = %2
  store i32 0, ptr %3, align 4
  br label %14

9:                                                ; preds = %2
  %10 = load i32, ptr %4, align 4, !tbaa !8
  %11 = load ptr, ptr %5, align 8, !tbaa !19
  call void @err_patch(i32 noundef %10, ptr noundef %11)
  %12 = load ptr, ptr %5, align 8, !tbaa !19
  %13 = call i32 @err_load_strings(ptr noundef %12)
  store i32 1, ptr %3, align 4
  br label %14

14:                                               ; preds = %9, %8
  %15 = load i32, ptr %3, align 4
  ret i32 %15
}