; Function Attrs: nounwind uwtable
define range(i32 0, 2) i32 @ERR_load_strings(i32 noundef %0, ptr noundef %1) local_unnamed_addr #0 {
  %3 = tail call i32 @ossl_err_load_ERR_strings()
  %4 = icmp eq i32 %3, 0
  br i1 %4, label %err_load_strings.exit, label %5

5:                                                ; preds = %2
  %6 = shl i32 %0, 23
  %7 = and i32 %6, 2139095040
  %8 = zext nneg i32 %7 to i64
  %9 = load i64, ptr %1, align 8, !tbaa !17
  %.not5.i = icmp eq i64 %9, 0
  br i1 %.not5.i, label %err_patch.exit, label %.lr.ph.i

.lr.ph.i:                                         ; preds = %5, %.lr.ph.i
  %10 = phi i64 [ %13, %.lr.ph.i ], [ %9, %5 ]
  %.06.i = phi ptr [ %12, %.lr.ph.i ], [ %1, %5 ]
  %11 = or i64 %10, %8
  store i64 %11, ptr %.06.i, align 8, !tbaa !17
  %12 = getelementptr inbounds nuw i8, ptr %.06.i, i64 16
  %13 = load i64, ptr %12, align 8, !tbaa !17
  %.not.i = icmp eq i64 %13, 0
  br i1 %.not.i, label %err_patch.exit, label %.lr.ph.i, !llvm.loop !20

err_patch.exit:                                   ; preds = %.lr.ph.i, %5
  %14 = load ptr, ptr @err_string_lock, align 8, !tbaa !14
  %15 = tail call i32 @CRYPTO_THREAD_write_lock(ptr noundef %14) #10
  %.not.i3 = icmp eq i32 %15, 0
  br i1 %.not.i3, label %err_load_strings.exit, label %.preheader.i

.preheader.i:                                     ; preds = %err_patch.exit
  %16 = load i64, ptr %1, align 8, !tbaa !17
  %.not45.i = icmp eq i64 %16, 0
  br i1 %.not45.i, label %._crit_edge.i, label %.lr.ph.i4

.lr.ph.i4:                                        ; preds = %.preheader.i, %.lr.ph.i4
  %.06.i5 = phi ptr [ %19, %.lr.ph.i4 ], [ %1, %.preheader.i ]
  %17 = load ptr, ptr @int_error_hash, align 8, !tbaa !15
  %18 = tail call ptr @OPENSSL_LH_insert(ptr noundef %17, ptr noundef nonnull %.06.i5) #10
  %19 = getelementptr inbounds nuw i8, ptr %.06.i5, i64 16
  %20 = load i64, ptr %19, align 8, !tbaa !17
  %.not4.i = icmp eq i64 %20, 0
  br i1 %.not4.i, label %._crit_edge.i, label %.lr.ph.i4, !llvm.loop !19

._crit_edge.i:                                    ; preds = %.lr.ph.i4, %.preheader.i
  %21 = load ptr, ptr @err_string_lock, align 8, !tbaa !14
  %22 = tail call i32 @CRYPTO_THREAD_unlock(ptr noundef %21) #10
  br label %err_load_strings.exit

err_load_strings.exit:                            ; preds = %._crit_edge.i, %err_patch.exit, %2
  %.0 = phi i32 [ 0, %2 ], [ 1, %err_patch.exit ], [ 1, %._crit_edge.i ]
  ret i32 %.0
}